target datalayout = "e-m:e-p270:32:32-p271:32:32-p272:64:64-i64:64-i128:128-f80:128-n8:16:32:64-S128"
target triple = "x86_64-pc-linux-gnu"

%"struct.duckdb_hll::robj" = type { ptr }
%"struct.duckdb_hll::hllhdr" = type { [4 x i8], i8, [3 x i8], [8 x i8], [1 x i8] }

@.str = private unnamed_addr constant [5 x i8] c"HYLL\00", align 1

; Function Attrs: mustprogress nounwind uwtable
define noundef ptr @_ZN10duckdb_hll12createObjectEPv(ptr noundef %0) #0 {
  %2 = alloca ptr, align 8
  %3 = alloca ptr, align 8
  store ptr %0, ptr %2, align 8, !tbaa !3
  call void @llvm.lifetime.start.p0(i64 8, ptr %3) #10
  %4 = call noalias ptr @malloc(i64 noundef 8) #11
  store ptr %4, ptr %3, align 8, !tbaa !22
  %5 = load ptr, ptr %2, align 8, !tbaa !3
  %6 = load ptr, ptr %3, align 8, !tbaa !22
  %7 = getelementptr inbounds nuw %"struct.duckdb_hll::robj", ptr %6, i32 0, i32 0
  store ptr %5, ptr %7, align 8, !tbaa !24
  %8 = load ptr, ptr %3, align 8, !tbaa !22
  call void @llvm.lifetime.end.p0(i64 8, ptr %3) #10
  ret ptr %8
}

; Function Attrs: mustprogress uwtable
define noundef ptr @_ZN10duckdb_hll10hll_createEv() #2 {
  %1 = alloca ptr, align 8
  %2 = alloca ptr, align 8
  %3 = alloca ptr, align 8
  %4 = alloca ptr, align 8
  %5 = alloca i32, align 4
  %6 = alloca i32, align 4
  %7 = alloca i32, align 4
  %8 = alloca i32, align 4
  call void @llvm.lifetime.start.p0(i64 8, ptr %1) #10
  call void @llvm.lifetime.start.p0(i64 8, ptr %2) #10
  call void @llvm.lifetime.start.p0(i64 8, ptr %3) #10
  call void @llvm.lifetime.start.p0(i64 8, ptr %4) #10
  call void @llvm.lifetime.start.p0(i64 4, ptr %5) #10
  store i32 19, ptr %5, align 4, !tbaa !7
  call void @llvm.lifetime.start.p0(i64 4, ptr %6) #10
  store i32 4096, ptr %6, align 4, !tbaa !7
  %9 = load i32, ptr %5, align 4, !tbaa !7
  %10 = sext i32 %9 to i64
  %11 = call noundef ptr @_ZN10duckdb_hll9sdsnewlenEPKvm(ptr noundef null, i64 noundef %10)
  store ptr %11, ptr %3, align 8, !tbaa !11
  %12 = load ptr, ptr %3, align 8, !tbaa !11
  %13 = getelementptr inbounds nuw i8, ptr %12, i64 17
  store ptr %13, ptr %4, align 8, !tbaa !11
  br label %14

14:                                               ; preds = %38, %0
  %15 = load i32, ptr %6, align 4, !tbaa !7
  %16 = icmp ne i32 %15, 0
  br i1 %16, label %17, label %44

17:                                               ; preds = %14
  call void @llvm.lifetime.start.p0(i64 4, ptr %7) #10
  store i32 16384, ptr %7, align 4, !tbaa !7
  %18 = load i32, ptr %7, align 4, !tbaa !7
  %19 = load i32, ptr %6, align 4, !tbaa !7
  %20 = icmp sgt i32 %18, %19
  br i1 %20, label %21, label %23

21:                                               ; preds = %17
  %22 = load i32, ptr %6, align 4, !tbaa !7
  store i32 %22, ptr %7, align 4, !tbaa !7
  br label %23

23:                                               ; preds = %21, %17
  br label %24

24:                                               ; preds = %23
  call void @llvm.lifetime.start.p0(i64 4, ptr %8) #10
  %25 = load i32, ptr %7, align 4, !tbaa !7
  %26 = sub nsw i32 %25, 1
  store i32 %26, ptr %8, align 4, !tbaa !7
  %27 = load i32, ptr %8, align 4, !tbaa !7
  %28 = ashr i32 %27, 8
  %29 = or i32 %28, 64
  %30 = trunc i32 %29 to i8
  %31 = load ptr, ptr %4, align 8, !tbaa !11
  store i8 %30, ptr %31, align 1, !tbaa !15
  %32 = load i32, ptr %8, align 4, !tbaa !7
  %33 = and i32 %32, 255
  %34 = trunc i32 %33 to i8
  %35 = load ptr, ptr %4, align 8, !tbaa !11
  %36 = getelementptr inbounds i8, ptr %35, i64 1
  store i8 %34, ptr %36, align 1, !tbaa !15
  call void @llvm.lifetime.end.p0(i64 4, ptr %8) #10
  br label %37

37:                                               ; preds = %24
  br label %38

38:                                               ; preds = %37
  %39 = load ptr, ptr %4, align 8, !tbaa !11
  %40 = getelementptr inbounds i8, ptr %39, i64 2
  store ptr %40, ptr %4, align 8, !tbaa !11
  %41 = load i32, ptr %7, align 4, !tbaa !7
  %42 = load i32, ptr %6, align 4, !tbaa !7
  %43 = sub nsw i32 %42, %41
  store i32 %43, ptr %6, align 4, !tbaa !7
  call void @llvm.lifetime.end.p0(i64 4, ptr %7) #10
  br label %14, !llvm.loop !54

44:                                               ; preds = %14
  %45 = load ptr, ptr %3, align 8, !tbaa !11
  %46 = call noundef ptr @_ZN10duckdb_hll12createObjectEPv(ptr noundef %45)
  store ptr %46, ptr %1, align 8, !tbaa !22
  %47 = load ptr, ptr %1, align 8, !tbaa !22
  %48 = getelementptr inbounds nuw %"struct.duckdb_hll::robj", ptr %47, i32 0, i32 0
  %49 = load ptr, ptr %48, align 8, !tbaa !24
  store ptr %49, ptr %2, align 8, !tbaa !26
  %50 = load ptr, ptr %2, align 8, !tbaa !26
  %51 = getelementptr inbounds nuw %"struct.duckdb_hll::hllhdr", ptr %50, i32 0, i32 0
  %52 = getelementptr inbounds [4 x i8], ptr %51, i64 0, i64 0
  call void @llvm.memcpy.p0.p0.i64(ptr align 1 %52, ptr align 1 @.str, i64 4, i1 false)
  %53 = load ptr, ptr %2, align 8, !tbaa !26
  %54 = getelementptr inbounds nuw %"struct.duckdb_hll::hllhdr", ptr %53, i32 0, i32 1
  store i8 1, ptr %54, align 1, !tbaa !28
  %55 = load ptr, ptr %1, align 8, !tbaa !22
  call void @llvm.lifetime.end.p0(i64 4, ptr %6) #10
  call void @llvm.lifetime.end.p0(i64 4, ptr %5) #10
  call void @llvm.lifetime.end.p0(i64 8, ptr %4) #10
  call void @llvm.lifetime.end.p0(i64 8, ptr %3) #10
  call void @llvm.lifetime.end.p0(i64 8, ptr %2) #10
  call void @llvm.lifetime.end.p0(i64 8, ptr %1) #10
  ret ptr %55
}