; Function Attrs: mustprogress uwtable
define noalias noundef ptr @_ZN10duckdb_hll10hll_createEv() local_unnamed_addr #3 {
  %1 = tail call noundef ptr @_ZN10duckdb_hll9sdsnewlenEPKvm(ptr noundef null, i64 noundef 19)
  %2 = getelementptr inbounds nuw i8, ptr %1, i64 17
  store i8 79, ptr %2, align 1, !tbaa !9
  %3 = getelementptr inbounds nuw i8, ptr %1, i64 18
  store i8 -1, ptr %3, align 1, !tbaa !9
  %4 = tail call noalias noundef dereferenceable_or_null(8) ptr @malloc(i64 noundef 8) #22
  store ptr %1, ptr %4, align 8, !tbaa !14
  store i32 1280072008, ptr %1, align 1
  %5 = getelementptr inbounds nuw i8, ptr %1, i64 4
  store i8 1, ptr %5, align 1, !tbaa !26
  ret ptr %4
}